target datalayout = "e-m:e-p270:32:32-p271:32:32-p272:64:64-i64:64-i128:128-f80:128-n8:16:32:64-S128"
target triple = "x86_64-pc-linux-gnu"

%struct.Extra_ImageTree2_t_ = type { ptr, ptr, ptr, ptr }

; Function Attrs: nounwind uwtable
define void @Extra_bddImageTreeDelete2(ptr noundef %0) #0 {
  %2 = alloca ptr, align 8
  store ptr %0, ptr %2, align 8, !tbaa !91
  %3 = load ptr, ptr %2, align 8, !tbaa !91
  %4 = getelementptr inbounds nuw %struct.Extra_ImageTree2_t_, ptr %3, i32 0, i32 1
  %5 = load ptr, ptr %4, align 8, !tbaa !97
  %6 = icmp ne ptr %5, null
  br i1 %6, label %7, label %14

7:                                                ; preds = %1
  %8 = load ptr, ptr %2, align 8, !tbaa !91
  %9 = getelementptr inbounds nuw %struct.Extra_ImageTree2_t_, ptr %8, i32 0, i32 0
  %10 = load ptr, ptr %9, align 8, !tbaa !93
  %11 = load ptr, ptr %2, align 8, !tbaa !91
  %12 = getelementptr inbounds nuw %struct.Extra_ImageTree2_t_, ptr %11, i32 0, i32 1
  %13 = load ptr, ptr %12, align 8, !tbaa !97
  call void @Cudd_RecursiveDeref(ptr noundef %10, ptr noundef %13)
  br label %14

14:                                               ; preds = %7, %1
  %15 = load ptr, ptr %2, align 8, !tbaa !91
  %16 = getelementptr inbounds nuw %struct.Extra_ImageTree2_t_, ptr %15, i32 0, i32 2
  %17 = load ptr, ptr %16, align 8, !tbaa !96
  %18 = icmp ne ptr %17, null
  br i1 %18, label %19, label %26

19:                                               ; preds = %14
  %20 = load ptr, ptr %2, align 8, !tbaa !91
  %21 = getelementptr inbounds nuw %struct.Extra_ImageTree2_t_, ptr %20, i32 0, i32 0
  %22 = load ptr, ptr %21, align 8, !tbaa !93
  %23 = load ptr, ptr %2, align 8, !tbaa !91
  %24 = getelementptr inbounds nuw %struct.Extra_ImageTree2_t_, ptr %23, i32 0, i32 2
  %25 = load ptr, ptr %24, align 8, !tbaa !96
  call void @Cudd_RecursiveDeref(ptr noundef %22, ptr noundef %25)
  br label %26

26:                                               ; preds = %19, %14
  %27 = load ptr, ptr %2, align 8, !tbaa !91
  %28 = getelementptr inbounds nuw %struct.Extra_ImageTree2_t_, ptr %27, i32 0, i32 3
  %29 = load ptr, ptr %28, align 8, !tbaa !95
  %30 = icmp ne ptr %29, null
  br i1 %30, label %31, label %38

31:                                               ; preds = %26
  %32 = load ptr, ptr %2, align 8, !tbaa !91
  %33 = getelementptr inbounds nuw %struct.Extra_ImageTree2_t_, ptr %32, i32 0, i32 0
  %34 = load ptr, ptr %33, align 8, !tbaa !93
  %35 = load ptr, ptr %2, align 8, !tbaa !91
  %36 = getelementptr inbounds nuw %struct.Extra_ImageTree2_t_, ptr %35, i32 0, i32 3
  %37 = load ptr, ptr %36, align 8, !tbaa !95
  call void @Cudd_RecursiveDeref(ptr noundef %34, ptr noundef %37)
  br label %38

38:                                               ; preds = %31, %26
  %39 = load ptr, ptr %2, align 8, !tbaa !91
  %40 = icmp ne ptr %39, null
  br i1 %40, label %41, label %43

41:                                               ; preds = %38
  %42 = load ptr, ptr %2, align 8, !tbaa !91
  call void @free(ptr noundef %42) #6
  store ptr null, ptr %2, align 8, !tbaa !91
  br label %44

43:                                               ; preds = %38
  br label %44

44:                                               ; preds = %43, %41
  ret void
}